; ModuleID = '43/515.c'
source_filename = "43/515.c"
target datalayout = "e-m:e-p270:32:32-p271:32:32-p272:64:64-i64:64-f80:128-n8:16:32:64-S128"
target triple = "x86_64-pc-linux-gnu"

@a = dso_local global [100 x i32] zeroinitializer, align 16
@.str = private unnamed_addr constant [3 x i8] c"%d\00", align 1
@.str.1 = private unnamed_addr constant [7 x i8] c"%d %d\0A\00", align 1

; Function Attrs: noinline nounwind uwtable
define dso_local i32 @main() #0 {
  %1 = alloca i32, align 4
  %2 = alloca i32, align 4
  %3 = alloca i32, align 4
  %4 = alloca i32, align 4
  %5 = alloca i32, align 4
  store i32 0, i32* %1, align 4
  %6 = call i32 (i8*, ...) @__isoc99_scanf(i8* getelementptr inbounds ([3 x i8], [3 x i8]* @.str, i64 0, i64 0), i32* %2)
  store i32 2, i32* %3, align 4
  br label %7

7:                                                ; preds = %32, %0
  %8 = load i32, i32* %3, align 4
  %9 = icmp slt i32 %8, 100
  br i1 %9, label %10, label %35

10:                                               ; preds = %7
  %11 = load i32, i32* %3, align 4
  %12 = sext i32 %11 to i64
  %13 = getelementptr inbounds [100 x i32], [100 x i32]* @a, i64 0, i64 %12
  %14 = load i32, i32* %13, align 4
  %15 = icmp eq i32 %14, 0
  br i1 %15, label %16, label %31

16:                                               ; preds = %10
  %17 = load i32, i32* %3, align 4
  %18 = shl i32 %17, 1
  store i32 %18, i32* %5, align 4
  br label %19

19:                                               ; preds = %26, %16
  %20 = load i32, i32* %5, align 4
  %21 = icmp slt i32 %20, 100
  br i1 %21, label %22, label %30

22:                                               ; preds = %19
  %23 = load i32, i32* %5, align 4
  %24 = sext i32 %23 to i64
  %25 = getelementptr inbounds [100 x i32], [100 x i32]* @a, i64 0, i64 %24
  store i32 1, i32* %25, align 4
  br label %26

26:                                               ; preds = %22
  %27 = load i32, i32* %3, align 4
  %28 = load i32, i32* %5, align 4
  %29 = add nsw i32 %28, %27
  store i32 %29, i32* %5, align 4
  br label %19

30:                                               ; preds = %19
  br label %31

31:                                               ; preds = %30, %10
  br label %32

32:                                               ; preds = %31
  %33 = load i32, i32* %3, align 4
  %34 = add nsw i32 %33, 1
  store i32 %34, i32* %3, align 4
  br label %7

35:                                               ; preds = %7
  store i32 3, i32* %3, align 4
  br label %36

36:                                               ; preds = %63, %35
  %37 = load i32, i32* %3, align 4
  %38 = load i32, i32* %2, align 4
  %39 = sdiv i32 %38, 2
  %40 = icmp sle i32 %37, %39
  br i1 %40, label %41, label %66

41:                                               ; preds = %36
  %42 = load i32, i32* %3, align 4
  %43 = sext i32 %42 to i64
  %44 = getelementptr inbounds [100 x i32], [100 x i32]* @a, i64 0, i64 %43
  %45 = load i32, i32* %44, align 4
  %46 = icmp eq i32 %45, 0
  br i1 %46, label %47, label %62

47:                                               ; preds = %41
  %48 = load i32, i32* %2, align 4
  %49 = load i32, i32* %3, align 4
  %50 = sub nsw i32 %48, %49
  %51 = sext i32 %50 to i64
  %52 = getelementptr inbounds [100 x i32], [100 x i32]* @a, i64 0, i64 %51
  %53 = load i32, i32* %52, align 4
  %54 = icmp eq i32 %53, 0
  br i1 %54, label %55, label %61

55:                                               ; preds = %47
  %56 = load i32, i32* %3, align 4
  %57 = load i32, i32* %2, align 4
  %58 = load i32, i32* %3, align 4
  %59 = sub nsw i32 %57, %58
  %60 = call i32 (i8*, ...) @printf(i8* getelementptr inbounds ([7 x i8], [7 x i8]* @.str.1, i64 0, i64 0), i32 %56, i32 %59)
  br label %61

61:                                               ; preds = %55, %47
  br label %62

62:                                               ; preds = %61, %41
  br label %63

63:                                               ; preds = %62
  %64 = load i32, i32* %3, align 4
  %65 = add nsw i32 %64, 2
  store i32 %65, i32* %3, align 4
  br label %36

66:                                               ; preds = %36
  ret i32 0
}

declare dso_local i32 @__isoc99_scanf(i8*, ...) #1

declare dso_local i32 @printf(i8*, ...) #1


!llvm.module.flags = !{!0}
!llvm.ident = !{!1}

!0 = !{i32 1, !"wchar_size", i32 4}
!1 = !{!"clang version 10.0.0-4ubuntu1 "}
