; ModuleID = 'source-C-CXX/42/515.c'
source_filename = "source-C-CXX/42/515.c"
target datalayout = "e-m:e-p270:32:32-p271:32:32-p272:64:64-i64:64-f80:128-n8:16:32:64-S128"
target triple = "x86_64-pc-linux-gnu"

@a = dso_local local_unnamed_addr global [100 x i32] zeroinitializer, align 16
@.str = private unnamed_addr constant [3 x i8] c"%d\00", align 1
@.str.1 = private unnamed_addr constant [7 x i8] c"%d %d\0A\00", align 1

; Function Attrs: nofree nounwind sspstrong uwtable
define dso_local i32 @main() local_unnamed_addr #0 {
  %1 = alloca i32, align 4
  %2 = bitcast i32* %1 to i8*
  call void @llvm.lifetime.start.p0i8(i64 4, i8* nonnull %2) #3
  %3 = call i32 (i8*, ...) @__isoc99_scanf(i8* getelementptr inbounds ([3 x i8], [3 x i8]* @.str, i64 0, i64 0), i32* nonnull %1)
  br label %7

4:                                                ; preds = %20
  %5 = load i32, i32* %1, align 4, !tbaa !5
  %6 = icmp slt i32 %5, 6
  br i1 %6, label %46, label %24

7:                                                ; preds = %0, %20
  %8 = phi i64 [ 2, %0 ], [ %21, %20 ]
  %9 = phi i64 [ 4, %0 ], [ %22, %20 ]
  %10 = getelementptr inbounds [100 x i32], [100 x i32]* @a, i64 0, i64 %8
  %11 = load i32, i32* %10, align 4, !tbaa !5
  %12 = icmp eq i32 %11, 0
  %13 = icmp ult i64 %8, 50
  %14 = select i1 %12, i1 %13, i1 false
  br i1 %14, label %15, label %20

15:                                               ; preds = %7, %15
  %16 = phi i64 [ %18, %15 ], [ %9, %7 ]
  %17 = getelementptr inbounds [100 x i32], [100 x i32]* @a, i64 0, i64 %16
  store i32 1, i32* %17, align 4, !tbaa !5
  %18 = add nuw nsw i64 %16, %8
  %19 = icmp ult i64 %18, 100
  br i1 %19, label %15, label %20, !llvm.loop !9

20:                                               ; preds = %15, %7
  %21 = add nuw nsw i64 %8, 1
  %22 = add nuw nsw i64 %9, 2
  %23 = icmp eq i64 %21, 100
  br i1 %23, label %4, label %7, !llvm.loop !11

24:                                               ; preds = %4, %40
  %25 = phi i32 [ %41, %40 ], [ %5, %4 ]
  %26 = phi i64 [ %42, %40 ], [ 3, %4 ]
  %27 = getelementptr inbounds [100 x i32], [100 x i32]* @a, i64 0, i64 %26
  %28 = load i32, i32* %27, align 4, !tbaa !5
  %29 = icmp eq i32 %28, 0
  br i1 %29, label %30, label %40

30:                                               ; preds = %24
  %31 = trunc i64 %26 to i32
  %32 = sub nsw i32 %25, %31
  %33 = sext i32 %32 to i64
  %34 = getelementptr inbounds [100 x i32], [100 x i32]* @a, i64 0, i64 %33
  %35 = load i32, i32* %34, align 4, !tbaa !5
  %36 = icmp eq i32 %35, 0
  br i1 %36, label %37, label %40

37:                                               ; preds = %30
  %38 = call i32 (i8*, ...) @printf(i8* nonnull dereferenceable(1) getelementptr inbounds ([7 x i8], [7 x i8]* @.str.1, i64 0, i64 0), i32 %31, i32 %32)
  %39 = load i32, i32* %1, align 4, !tbaa !5
  br label %40

40:                                               ; preds = %24, %37, %30
  %41 = phi i32 [ %25, %24 ], [ %39, %37 ], [ %25, %30 ]
  %42 = add nuw nsw i64 %26, 2
  %43 = sdiv i32 %41, 2
  %44 = sext i32 %43 to i64
  %45 = icmp sgt i64 %42, %44
  br i1 %45, label %46, label %24, !llvm.loop !12

46:                                               ; preds = %40, %4
  call void @llvm.lifetime.end.p0i8(i64 4, i8* nonnull %2) #3
  ret i32 0
}

; Function Attrs: argmemonly mustprogress nofree nosync nounwind willreturn
declare void @llvm.lifetime.start.p0i8(i64 immarg, i8* nocapture) #1

; Function Attrs: nofree nounwind
declare noundef i32 @__isoc99_scanf(i8* nocapture noundef readonly, ...) local_unnamed_addr #2

; Function Attrs: nofree nounwind
declare noundef i32 @printf(i8* nocapture noundef readonly, ...) local_unnamed_addr #2

; Function Attrs: argmemonly mustprogress nofree nosync nounwind willreturn
declare void @llvm.lifetime.end.p0i8(i64 immarg, i8* nocapture) #1


!llvm.module.flags = !{!0, !1, !2, !3}
!llvm.ident = !{!4}

!0 = !{i32 1, !"wchar_size", i32 4}
!1 = !{i32 7, !"PIC Level", i32 2}
!2 = !{i32 7, !"PIE Level", i32 2}
!3 = !{i32 7, !"uwtable", i32 1}
!4 = !{!"clang version 13.0.0"}
!5 = !{!6, !6, i64 0}
!6 = !{!"int", !7, i64 0}
!7 = !{!"omnipotent char", !8, i64 0}
!8 = !{!"Simple C/C++ TBAA"}
!9 = distinct !{!9, !10}
!10 = !{!"llvm.loop.mustprogress"}
!11 = distinct !{!11, !10}
!12 = distinct !{!12, !10}
